target datalayout = "e-m:e-p270:32:32-p271:32:32-p272:64:64-i64:64-i128:128-f80:128-n8:16:32:64-S128"
target triple = "x86_64-pc-linux-gnu"

%struct.H5G_trav_goi_t = type { ptr, i8, ptr }
%struct.H5G_loc_t = type { ptr, ptr }
%struct.H5O_loc_t = type { ptr, i64, i8 }
%struct.H5G_stat_t = type { [2 x i64], [2 x i64], i32, i32, i64, i64, %struct.H5O_stat_t }
%struct.H5O_stat_t = type { i64, i64, i32, i32 }
%struct.H5O_info2_t = type { i64, %struct.H5O_token_t, i32, i32, i64, i64, i64, i64, i64 }
%struct.H5O_token_t = type { [16 x i8] }
%struct.H5O_native_info_t = type { %struct.H5O_hdr_info_t, %struct.anon.23 }
%struct.H5O_hdr_info_t = type { i32, i32, i32, i32, %struct.anon.21, %struct.anon.22 }
%struct.anon.21 = type { i64, i64, i64, i64 }
%struct.anon.22 = type { i64, i64 }
%struct.anon.23 = type { %struct.H5_ih_info_t, %struct.H5_ih_info_t }
%struct.H5_ih_info_t = type { i64, i64 }
%struct.H5O_link_t = type { i32, i8, i64, i32, ptr, %union.anon.20 }
%union.anon.20 = type { %struct.H5O_link_ud_t }
%struct.H5O_link_ud_t = type { ptr, i64 }

@.str = private unnamed_addr constant [103 x i8] c"generated/home/dtcxzyw/WorkSpace/Projects/compilers/llvm-opt-benchmark/bench/hdf5/hdf5/src/H5Gdeprec.c\00", align 1
@H5E_BADVALUE_g = external global i64, align 8
@H5E_SYM_g = external global i64, align 8
@H5E_CANTGET_g = external global i64, align 8
@__func__.H5G__get_objinfo_cb = private unnamed_addr constant [20 x i8] c"H5G__get_objinfo_cb\00", align 1
@H5E_NOTFOUND_g = external global i64, align 8
@.str.45 = private unnamed_addr constant [19 x i8] c"'%s' doesn't exist\00", align 1
@H5E_FILE_g = external global i64, align 8
@.str.46 = private unnamed_addr constant [22 x i8] c"unable to read fileno\00", align 1
@H5E_OHDR_g = external global i64, align 8
@.str.47 = private unnamed_addr constant [37 x i8] c"unable to get data model object info\00", align 1
@.str.48 = private unnamed_addr constant [33 x i8] c"unable to get native object info\00", align 1
@H5E_CANTUNSERIALIZE_g = external global i64, align 8
@.str.49 = private unnamed_addr constant [44 x i8] c"can't deserialize object token into address\00", align 1

; Function Attrs: nounwind uwtable
define i32 @H5G_map_obj_type(i32 noundef %0) #0 {
  %2 = alloca i32, align 4
  %3 = alloca i32, align 4
  store i32 %0, ptr %2, align 4
  store i32 -1, ptr %3, align 4
  %4 = load i32, ptr %2, align 4
  switch i32 %4, label %9 [
    i32 0, label %5
    i32 1, label %6
    i32 2, label %7
    i32 3, label %8
    i32 -1, label %8
    i32 4, label %8
  ]

5:                                                ; preds = %1
  store i32 0, ptr %3, align 4
  br label %10

6:                                                ; preds = %1
  store i32 1, ptr %3, align 4
  br label %10

7:                                                ; preds = %1
  store i32 2, ptr %3, align 4
  br label %10

8:                                                ; preds = %1, %1, %1
  br label %9

9:                                                ; preds = %8, %1
  store i32 -1, ptr %3, align 4
  br label %10

10:                                               ; preds = %9, %7, %6, %5
  %11 = load i32, ptr %3, align 4
  ret i32 %11
}

; Function Attrs: nounwind uwtable
define internal i32 @H5G__get_objinfo_cb(ptr noundef %0, ptr noundef %1, ptr noundef %2, ptr noundef %3, ptr noundef %4, ptr noundef %5) #0 {
  %7 = alloca ptr, align 8
  %8 = alloca ptr, align 8
  %9 = alloca ptr, align 8
  %10 = alloca ptr, align 8
  %11 = alloca ptr, align 8
  %12 = alloca ptr, align 8
  %13 = alloca ptr, align 8
  %14 = alloca i32, align 4
  %15 = alloca i8, align 1
  %16 = alloca ptr, align 8
  %17 = alloca %struct.H5O_info2_t, align 8
  %18 = alloca %struct.H5O_native_info_t, align 8
  %19 = alloca i64, align 8
  store ptr %0, ptr %7, align 8
  store ptr %1, ptr %8, align 8
  store ptr %2, ptr %9, align 8
  store ptr %3, ptr %10, align 8
  store ptr %4, ptr %11, align 8
  store ptr %5, ptr %12, align 8
  %20 = load ptr, ptr %11, align 8
  store ptr %20, ptr %13, align 8
  store i32 0, ptr %14, align 4
  store i8 0, ptr %15, align 1
  %21 = load ptr, ptr %9, align 8
  %22 = icmp eq ptr %21, null
  br i1 %22, label %23, label %42

23:                                               ; preds = %6
  %24 = load ptr, ptr %10, align 8
  %25 = icmp eq ptr %24, null
  br i1 %25, label %26, label %42

26:                                               ; preds = %23
  br label %27

27:                                               ; preds = %26
  br label %28

28:                                               ; preds = %27
  br label %29

29:                                               ; preds = %28
  %30 = load i64, ptr @H5E_SYM_g, align 8
  %31 = load i64, ptr @H5E_NOTFOUND_g, align 8
  %32 = load ptr, ptr %8, align 8
  %33 = call i32 (ptr, ptr, i32, i64, i64, ptr, ...) @H5E_printf_stack(ptr noundef @.str, ptr noundef @__func__.H5G__get_objinfo_cb, i32 noundef 975, i64 noundef %30, i64 noundef %31, ptr noundef @.str.45, ptr noundef %32)
  br label %34

34:                                               ; preds = %29
  store i8 1, ptr %15, align 1
  %35 = load i8, ptr %15, align 1
  %36 = trunc i8 %35 to i1
  %37 = zext i1 %36 to i8
  store i8 %37, ptr %15, align 1
  br label %38

38:                                               ; preds = %34
  br label %39

39:                                               ; preds = %38
  store i32 -1, ptr %14, align 4
  br label %215

40:                                               ; No predecessors!
  br label %41

41:                                               ; preds = %40
  br label %42

42:                                               ; preds = %41, %23, %6
  %43 = load ptr, ptr %13, align 8
  %44 = getelementptr inbounds %struct.H5G_trav_goi_t, ptr %43, i32 0, i32 0
  %45 = load ptr, ptr %44, align 8
  %46 = icmp ne ptr %45, null
  br i1 %46, label %47, label %214

47:                                               ; preds = %42
  %48 = load ptr, ptr %13, align 8
  %49 = getelementptr inbounds %struct.H5G_trav_goi_t, ptr %48, i32 0, i32 0
  %50 = load ptr, ptr %49, align 8
  store ptr %50, ptr %16, align 8
  %51 = load ptr, ptr %10, align 8
  %52 = icmp ne ptr %51, null
  br i1 %52, label %53, label %55

53:                                               ; preds = %47
  %54 = load ptr, ptr %10, align 8
  br label %57

55:                                               ; preds = %47
  %56 = load ptr, ptr %7, align 8
  br label %57

57:                                               ; preds = %55, %53
  %58 = phi ptr [ %54, %53 ], [ %56, %55 ]
  %59 = getelementptr inbounds %struct.H5G_loc_t, ptr %58, i32 0, i32 0
  %60 = load ptr, ptr %59, align 8
  %61 = getelementptr inbounds %struct.H5O_loc_t, ptr %60, i32 0, i32 0
  %62 = load ptr, ptr %61, align 8
  %63 = load ptr, ptr %16, align 8
  %64 = getelementptr inbounds %struct.H5G_stat_t, ptr %63, i32 0, i32 0
  %65 = getelementptr inbounds [2 x i64], ptr %64, i64 0, i64 0
  %66 = call i32 @H5F_get_fileno(ptr noundef %62, ptr noundef %65)
  %67 = icmp slt i32 %66, 0
  br i1 %67, label %68, label %83

68:                                               ; preds = %57
  br label %69

69:                                               ; preds = %68
  br label %70

70:                                               ; preds = %69
  br label %71

71:                                               ; preds = %70
  %72 = load i64, ptr @H5E_FILE_g, align 8
  %73 = load i64, ptr @H5E_BADVALUE_g, align 8
  %74 = call i32 (ptr, ptr, i32, i64, i64, ptr, ...) @H5E_printf_stack(ptr noundef @.str, ptr noundef @__func__.H5G__get_objinfo_cb, i32 noundef 983, i64 noundef %72, i64 noundef %73, ptr noundef @.str.46)
  br label %75

75:                                               ; preds = %71
  store i8 1, ptr %15, align 1
  %76 = load i8, ptr %15, align 1
  %77 = trunc i8 %76 to i1
  %78 = zext i1 %77 to i8
  store i8 %78, ptr %15, align 1
  br label %79

79:                                               ; preds = %75
  br label %80

80:                                               ; preds = %79
  store i32 -1, ptr %14, align 4
  br label %215

81:                                               ; No predecessors!
  br label %82

82:                                               ; preds = %81
  br label %83

83:                                               ; preds = %82, %57
  %84 = load ptr, ptr %13, align 8
  %85 = getelementptr inbounds %struct.H5G_trav_goi_t, ptr %84, i32 0, i32 1
  %86 = load i8, ptr %85, align 8
  %87 = trunc i8 %86 to i1
  br i1 %87, label %96, label %88

88:                                               ; preds = %83
  %89 = load ptr, ptr %9, align 8
  %90 = icmp ne ptr %89, null
  br i1 %90, label %91, label %96

91:                                               ; preds = %88
  %92 = load ptr, ptr %9, align 8
  %93 = getelementptr inbounds %struct.H5O_link_t, ptr %92, i32 0, i32 0
  %94 = load i32, ptr %93, align 8
  %95 = icmp eq i32 %94, 0
  br i1 %95, label %96, label %213

96:                                               ; preds = %91, %88, %83
  %97 = load ptr, ptr %10, align 8
  %98 = getelementptr inbounds %struct.H5G_loc_t, ptr %97, i32 0, i32 0
  %99 = load ptr, ptr %98, align 8
  %100 = call i32 @H5O_get_info(ptr noundef %99, ptr noundef %17, i32 noundef 3)
  %101 = icmp slt i32 %100, 0
  br i1 %101, label %102, label %117

102:                                              ; preds = %96
  br label %103

103:                                              ; preds = %102
  br label %104

104:                                              ; preds = %103
  br label %105

105:                                              ; preds = %104
  %106 = load i64, ptr @H5E_OHDR_g, align 8
  %107 = load i64, ptr @H5E_CANTGET_g, align 8
  %108 = call i32 (ptr, ptr, i32, i64, i64, ptr, ...) @H5E_printf_stack(ptr noundef @.str, ptr noundef @__func__.H5G__get_objinfo_cb, i32 noundef 997, i64 noundef %106, i64 noundef %107, ptr noundef @.str.47)
  br label %109

109:                                              ; preds = %105
  store i8 1, ptr %15, align 1
  %110 = load i8, ptr %15, align 1
  %111 = trunc i8 %110 to i1
  %112 = zext i1 %111 to i8
  store i8 %112, ptr %15, align 1
  br label %113

113:                                              ; preds = %109
  br label %114

114:                                              ; preds = %113
  store i32 -1, ptr %14, align 4
  br label %215

115:                                              ; No predecessors!
  br label %116

116:                                              ; preds = %115
  br label %117

117:                                              ; preds = %116, %96
  %118 = load ptr, ptr %10, align 8
  %119 = getelementptr inbounds %struct.H5G_loc_t, ptr %118, i32 0, i32 0
  %120 = load ptr, ptr %119, align 8
  %121 = call i32 @H5O_get_native_info(ptr noundef %120, ptr noundef %18, i32 noundef 8)
  %122 = icmp slt i32 %121, 0
  br i1 %122, label %123, label %138

123:                                              ; preds = %117
  br label %124

124:                                              ; preds = %123
  br label %125

125:                                              ; preds = %124
  br label %126

126:                                              ; preds = %125
  %127 = load i64, ptr @H5E_OHDR_g, align 8
  %128 = load i64, ptr @H5E_CANTGET_g, align 8
  %129 = call i32 (ptr, ptr, i32, i64, i64, ptr, ...) @H5E_printf_stack(ptr noundef @.str, ptr noundef @__func__.H5G__get_objinfo_cb, i32 noundef 999, i64 noundef %127, i64 noundef %128, ptr noundef @.str.48)
  br label %130

130:                                              ; preds = %126
  store i8 1, ptr %15, align 1
  %131 = load i8, ptr %15, align 1
  %132 = trunc i8 %131 to i1
  %133 = zext i1 %132 to i8
  store i8 %133, ptr %15, align 1
  br label %134

134:                                              ; preds = %130
  br label %135

135:                                              ; preds = %134
  store i32 -1, ptr %14, align 4
  br label %215

136:                                              ; No predecessors!
  br label %137

137:                                              ; preds = %136
  br label %138

138:                                              ; preds = %137, %117
  %139 = getelementptr inbounds %struct.H5O_info2_t, ptr %17, i32 0, i32 2
  %140 = load i32, ptr %139, align 8
  %141 = call i32 @H5G_map_obj_type(i32 noundef %140)
  %142 = load ptr, ptr %16, align 8
  %143 = getelementptr inbounds %struct.H5G_stat_t, ptr %142, i32 0, i32 3
  store i32 %141, ptr %143, align 4
  %144 = load ptr, ptr %10, align 8
  %145 = getelementptr inbounds %struct.H5G_loc_t, ptr %144, i32 0, i32 0
  %146 = load ptr, ptr %145, align 8
  %147 = getelementptr inbounds %struct.H5O_loc_t, ptr %146, i32 0, i32 0
  %148 = load ptr, ptr %147, align 8
  %149 = getelementptr inbounds %struct.H5O_info2_t, ptr %17, i32 0, i32 1
  %150 = getelementptr inbounds { i64, i64 }, ptr %149, i32 0, i32 0
  %151 = load i64, ptr %150, align 8
  %152 = getelementptr inbounds { i64, i64 }, ptr %149, i32 0, i32 1
  %153 = load i64, ptr %152, align 8
  %154 = call i32 @H5VL_native_token_to_addr(ptr noundef %148, i32 noundef 1, i64 %151, i64 %153, ptr noundef %19)
  %155 = icmp slt i32 %154, 0
  br i1 %155, label %156, label %171

156:                                              ; preds = %138
  br label %157

157:                                              ; preds = %156
  br label %158

158:                                              ; preds = %157
  br label %159

159:                                              ; preds = %158
  %160 = load i64, ptr @H5E_OHDR_g, align 8
  %161 = load i64, ptr @H5E_CANTUNSERIALIZE_g, align 8
  %162 = call i32 (ptr, ptr, i32, i64, i64, ptr, ...) @H5E_printf_stack(ptr noundef @.str, ptr noundef @__func__.H5G__get_objinfo_cb, i32 noundef 1007, i64 noundef %160, i64 noundef %161, ptr noundef @.str.49)
  br label %163

163:                                              ; preds = %159
  store i8 1, ptr %15, align 1
  %164 = load i8, ptr %15, align 1
  %165 = trunc i8 %164 to i1
  %166 = zext i1 %165 to i8
  store i8 %166, ptr %15, align 1
  br label %167

167:                                              ; preds = %163
  br label %168

168:                                              ; preds = %167
  store i32 -1, ptr %14, align 4
  br label %215

169:                                              ; No predecessors!
  br label %170

170:                                              ; preds = %169
  br label %171

171:                                              ; preds = %170, %138
  %172 = load i64, ptr %19, align 8
  %173 = load ptr, ptr %16, align 8
  %174 = getelementptr inbounds %struct.H5G_stat_t, ptr %173, i32 0, i32 1
  %175 = getelementptr inbounds [2 x i64], ptr %174, i64 0, i64 0
  store i64 %172, ptr %175, align 8
  %176 = load ptr, ptr %16, align 8
  %177 = getelementptr inbounds %struct.H5G_stat_t, ptr %176, i32 0, i32 1
  %178 = getelementptr inbounds [2 x i64], ptr %177, i64 0, i64 1
  store i64 0, ptr %178, align 8
  %179 = getelementptr inbounds %struct.H5O_info2_t, ptr %17, i32 0, i32 3
  %180 = load i32, ptr %179, align 4
  %181 = load ptr, ptr %16, align 8
  %182 = getelementptr inbounds %struct.H5G_stat_t, ptr %181, i32 0, i32 2
  store i32 %180, ptr %182, align 8
  %183 = getelementptr inbounds %struct.H5O_info2_t, ptr %17, i32 0, i32 6
  %184 = load i64, ptr %183, align 8
  %185 = load ptr, ptr %16, align 8
  %186 = getelementptr inbounds %struct.H5G_stat_t, ptr %185, i32 0, i32 4
  store i64 %184, ptr %186, align 8
  %187 = getelementptr inbounds %struct.H5O_native_info_t, ptr %18, i32 0, i32 0
  %188 = getelementptr inbounds %struct.H5O_hdr_info_t, ptr %187, i32 0, i32 4
  %189 = getelementptr inbounds %struct.anon.21, ptr %188, i32 0, i32 0
  %190 = load i64, ptr %189, align 8
  %191 = load ptr, ptr %16, align 8
  %192 = getelementptr inbounds %struct.H5G_stat_t, ptr %191, i32 0, i32 6
  %193 = getelementptr inbounds %struct.H5O_stat_t, ptr %192, i32 0, i32 0
  store i64 %190, ptr %193, align 8
  %194 = getelementptr inbounds %struct.H5O_native_info_t, ptr %18, i32 0, i32 0
  %195 = getelementptr inbounds %struct.H5O_hdr_info_t, ptr %194, i32 0, i32 4
  %196 = getelementptr inbounds %struct.anon.21, ptr %195, i32 0, i32 3
  %197 = load i64, ptr %196, align 8
  %198 = load ptr, ptr %16, align 8
  %199 = getelementptr inbounds %struct.H5G_stat_t, ptr %198, i32 0, i32 6
  %200 = getelementptr inbounds %struct.H5O_stat_t, ptr %199, i32 0, i32 1
  store i64 %197, ptr %200, align 8
  %201 = getelementptr inbounds %struct.H5O_native_info_t, ptr %18, i32 0, i32 0
  %202 = getelementptr inbounds %struct.H5O_hdr_info_t, ptr %201, i32 0, i32 1
  %203 = load i32, ptr %202, align 4
  %204 = load ptr, ptr %16, align 8
  %205 = getelementptr inbounds %struct.H5G_stat_t, ptr %204, i32 0, i32 6
  %206 = getelementptr inbounds %struct.H5O_stat_t, ptr %205, i32 0, i32 2
  store i32 %203, ptr %206, align 8
  %207 = getelementptr inbounds %struct.H5O_native_info_t, ptr %18, i32 0, i32 0
  %208 = getelementptr inbounds %struct.H5O_hdr_info_t, ptr %207, i32 0, i32 2
  %209 = load i32, ptr %208, align 8
  %210 = load ptr, ptr %16, align 8
  %211 = getelementptr inbounds %struct.H5G_stat_t, ptr %210, i32 0, i32 6
  %212 = getelementptr inbounds %struct.H5O_stat_t, ptr %211, i32 0, i32 3
  store i32 %209, ptr %212, align 4
  br label %213

213:                                              ; preds = %171, %91
  br label %214

214:                                              ; preds = %213, %42
  br label %215

215:                                              ; preds = %214, %168, %135, %114, %80, %39
  %216 = load ptr, ptr %12, align 8
  store i32 0, ptr %216, align 4
  %217 = load i32, ptr %14, align 4
  ret i32 %217
}