; Function Attrs: nounwind uwtable
define internal range(i32 -1, 1) i32 @H5G__get_objinfo_cb(ptr nocapture noundef readonly %0, ptr noundef %1, ptr noundef readonly %2, ptr noundef readonly %3, ptr nocapture noundef readonly %4, ptr nocapture noundef writeonly %5) #1 {
  %7 = alloca %struct.H5O_info2_t, align 8
  %8 = alloca %struct.H5O_native_info_t, align 8
  %9 = alloca i64, align 8
  %10 = icmp eq ptr %2, null
  %11 = icmp eq ptr %3, null
  %or.cond = and i1 %10, %11
  br i1 %or.cond, label %12, label %16

12:                                               ; preds = %6
  %13 = load i64, ptr @H5E_SYM_g, align 8
  %14 = load i64, ptr @H5E_NOTFOUND_g, align 8
  %15 = tail call i32 (ptr, ptr, i32, i64, i64, ptr, ...) @H5E_printf_stack(ptr noundef nonnull @.str, ptr noundef nonnull @__func__.H5G__get_objinfo_cb, i32 noundef 975, i64 noundef %13, i64 noundef %14, ptr noundef nonnull @.str.45, ptr noundef %1) #4
  br label %86

16:                                               ; preds = %6
  %17 = load ptr, ptr %4, align 8
  %.not36 = icmp eq ptr %17, null
  br i1 %.not36, label %86, label %18

18:                                               ; preds = %16
  %19 = select i1 %11, ptr %0, ptr %3
  %20 = load ptr, ptr %19, align 8
  %21 = load ptr, ptr %20, align 8
  %22 = tail call i32 @H5F_get_fileno(ptr noundef %21, ptr noundef nonnull %17) #4
  %23 = icmp slt i32 %22, 0
  br i1 %23, label %24, label %28

24:                                               ; preds = %18
  %25 = load i64, ptr @H5E_FILE_g, align 8
  %26 = load i64, ptr @H5E_BADVALUE_g, align 8
  %27 = tail call i32 (ptr, ptr, i32, i64, i64, ptr, ...) @H5E_printf_stack(ptr noundef nonnull @.str, ptr noundef nonnull @__func__.H5G__get_objinfo_cb, i32 noundef 983, i64 noundef %25, i64 noundef %26, ptr noundef nonnull @.str.46) #4
  br label %86

28:                                               ; preds = %18
  %29 = getelementptr inbounds i8, ptr %4, i64 8
  %30 = load i8, ptr %29, align 8
  %31 = trunc i8 %30 to i1
  %or.cond3.not = or i1 %10, %31
  br i1 %or.cond3.not, label %35, label %32

32:                                               ; preds = %28
  %33 = load i32, ptr %2, align 8
  %34 = icmp eq i32 %33, 0
  br i1 %34, label %35, label %86

35:                                               ; preds = %32, %28
  %36 = load ptr, ptr %3, align 8
  %37 = call i32 @H5O_get_info(ptr noundef %36, ptr noundef nonnull %7, i32 noundef 3) #4
  %38 = icmp slt i32 %37, 0
  br i1 %38, label %39, label %43

39:                                               ; preds = %35
  %40 = load i64, ptr @H5E_OHDR_g, align 8
  %41 = load i64, ptr @H5E_CANTGET_g, align 8
  %42 = call i32 (ptr, ptr, i32, i64, i64, ptr, ...) @H5E_printf_stack(ptr noundef nonnull @.str, ptr noundef nonnull @__func__.H5G__get_objinfo_cb, i32 noundef 997, i64 noundef %40, i64 noundef %41, ptr noundef nonnull @.str.47) #4
  br label %86

43:                                               ; preds = %35
  %44 = load ptr, ptr %3, align 8
  %45 = call i32 @H5O_get_native_info(ptr noundef %44, ptr noundef nonnull %8, i32 noundef 8) #4
  %46 = icmp slt i32 %45, 0
  br i1 %46, label %47, label %H5G_map_obj_type.exit

47:                                               ; preds = %43
  %48 = load i64, ptr @H5E_OHDR_g, align 8
  %49 = load i64, ptr @H5E_CANTGET_g, align 8
  %50 = call i32 (ptr, ptr, i32, i64, i64, ptr, ...) @H5E_printf_stack(ptr noundef nonnull @.str, ptr noundef nonnull @__func__.H5G__get_objinfo_cb, i32 noundef 999, i64 noundef %48, i64 noundef %49, ptr noundef nonnull @.str.48) #4
  br label %86

H5G_map_obj_type.exit:                            ; preds = %43
  %51 = getelementptr inbounds i8, ptr %7, i64 24
  %52 = load i32, ptr %51, align 8
  %53 = icmp ult i32 %52, 3
  %. = select i1 %53, i32 %52, i32 -1
  %54 = getelementptr inbounds i8, ptr %17, i64 36
  store i32 %., ptr %54, align 4
  %55 = load ptr, ptr %3, align 8
  %56 = load ptr, ptr %55, align 8
  %57 = getelementptr inbounds i8, ptr %7, i64 8
  %58 = load i64, ptr %57, align 8
  %59 = getelementptr inbounds i8, ptr %7, i64 16
  %60 = load i64, ptr %59, align 8
  %61 = call i32 @H5VL_native_token_to_addr(ptr noundef %56, i32 noundef 1, i64 %58, i64 %60, ptr noundef nonnull %9) #4
  %62 = icmp slt i32 %61, 0
  br i1 %62, label %63, label %67

63:                                               ; preds = %H5G_map_obj_type.exit
  %64 = load i64, ptr @H5E_OHDR_g, align 8
  %65 = load i64, ptr @H5E_CANTUNSERIALIZE_g, align 8
  %66 = call i32 (ptr, ptr, i32, i64, i64, ptr, ...) @H5E_printf_stack(ptr noundef nonnull @.str, ptr noundef nonnull @__func__.H5G__get_objinfo_cb, i32 noundef 1007, i64 noundef %64, i64 noundef %65, ptr noundef nonnull @.str.49) #4
  br label %86

67:                                               ; preds = %H5G_map_obj_type.exit
  %68 = load i64, ptr %9, align 8
  %69 = getelementptr inbounds i8, ptr %17, i64 16
  store i64 %68, ptr %69, align 8
  %70 = getelementptr inbounds i8, ptr %17, i64 24
  store i64 0, ptr %70, align 8
  %71 = getelementptr inbounds i8, ptr %7, i64 28
  %72 = load i32, ptr %71, align 4
  %73 = getelementptr inbounds i8, ptr %17, i64 32
  store i32 %72, ptr %73, align 8
  %74 = getelementptr inbounds i8, ptr %7, i64 48
  %75 = load i64, ptr %74, align 8
  %76 = getelementptr inbounds i8, ptr %17, i64 40
  store i64 %75, ptr %76, align 8
  %77 = getelementptr inbounds i8, ptr %8, i64 16
  %78 = load i64, ptr %77, align 8
  %79 = getelementptr inbounds i8, ptr %17, i64 56
  store i64 %78, ptr %79, align 8
  %80 = getelementptr inbounds i8, ptr %8, i64 40
  %81 = load i64, ptr %80, align 8
  %82 = getelementptr inbounds i8, ptr %17, i64 64
  store i64 %81, ptr %82, align 8
  %83 = getelementptr inbounds i8, ptr %8, i64 4
  %84 = getelementptr inbounds i8, ptr %17, i64 72
  %85 = load <2 x i32>, ptr %83, align 4
  store <2 x i32> %85, ptr %84, align 8
  br label %86

86:                                               ; preds = %16, %67, %32, %63, %47, %39, %24, %12
  %.0 = phi i32 [ -1, %12 ], [ -1, %24 ], [ -1, %39 ], [ -1, %47 ], [ -1, %63 ], [ 0, %67 ], [ 0, %32 ], [ 0, %16 ]
  store i32 0, ptr %5, align 4
  ret i32 %.0
}